; Function Attrs: mustprogress uwtable
define internal void @_ZN12_GLOBAL__N_12RW5closeEv(ptr nocapture noundef nonnull readonly align 8 dereferenceable(48) %0) unnamed_addr #0 align 2 {
  %2 = getelementptr inbounds i8, ptr %0, i64 16
  %3 = load ptr, ptr %2, align 8
  %4 = load ptr, ptr %3, align 8
  %5 = getelementptr i8, ptr %4, i64 -48
  %6 = load i64, ptr %5, align 8
  %7 = getelementptr inbounds i8, ptr %3, i64 %6
  %8 = load ptr, ptr %7, align 8
  %9 = getelementptr inbounds i8, ptr %8, i64 24
  %10 = load ptr, ptr %9, align 8
  tail call void %10(ptr noundef nonnull align 8 dereferenceable(8) %7)
  %11 = getelementptr inbounds i8, ptr %0, i64 32
  %12 = load ptr, ptr %11, align 8
  %13 = load ptr, ptr %12, align 8
  %14 = getelementptr i8, ptr %13, i64 -48
  %15 = load i64, ptr %14, align 8
  %16 = getelementptr inbounds i8, ptr %12, i64 %15
  %17 = load ptr, ptr %16, align 8
  %18 = getelementptr inbounds i8, ptr %17, i64 24
  %19 = load ptr, ptr %18, align 8
  tail call void %19(ptr noundef nonnull align 8 dereferenceable(8) %16)
  ret void
}